; ModuleID = '40/1324.c'
source_filename = "40/1324.c"
target datalayout = "e-m:e-p270:32:32-p271:32:32-p272:64:64-i64:64-f80:128-n8:16:32:64-S128"
target triple = "x86_64-pc-linux-gnu"

@.str = private unnamed_addr constant [16 x i8] c"%lf%lf%lf%lf%lf\00", align 1
@.str.1 = private unnamed_addr constant [14 x i8] c"Invalid input\00", align 1
@.str.2 = private unnamed_addr constant [6 x i8] c"%.4lf\00", align 1

; Function Attrs: noinline nounwind uwtable
define dso_local i32 @main() #0 {
  %1 = alloca i32, align 4
  %2 = alloca double, align 8
  %3 = alloca double, align 8
  %4 = alloca double, align 8
  %5 = alloca double, align 8
  %6 = alloca double, align 8
  %7 = alloca double, align 8
  %8 = alloca double, align 8
  %9 = alloca double, align 8
  store i32 0, i32* %1, align 4
  %10 = call i32 (i8*, ...) @__isoc99_scanf(i8* getelementptr inbounds ([16 x i8], [16 x i8]* @.str, i64 0, i64 0), double* %2, double* %3, double* %4, double* %5, double* %6)
  %11 = load double, double* %6, align 8
  %12 = fcmp ogt double %11, 0.000000e+00
  br i1 %12, label %13, label %69

13:                                               ; preds = %0
  %14 = load double, double* %6, align 8
  %15 = fcmp olt double %14, 3.600000e+02
  br i1 %15, label %16, label %68

16:                                               ; preds = %13
  %17 = load double, double* %2, align 8
  %18 = load double, double* %3, align 8
  %19 = fadd double %17, %18
  %20 = load double, double* %4, align 8
  %21 = fadd double %19, %20
  %22 = load double, double* %5, align 8
  %23 = fadd double %21, %22
  %24 = fdiv double %23, 2.000000e+00
  store double %24, double* %8, align 8
  %25 = load double, double* %8, align 8
  %26 = load double, double* %2, align 8
  %27 = fsub double %25, %26
  %28 = load double, double* %8, align 8
  %29 = load double, double* %3, align 8
  %30 = fsub double %28, %29
  %31 = fmul double %27, %30
  %32 = load double, double* %8, align 8
  %33 = load double, double* %4, align 8
  %34 = fsub double %32, %33
  %35 = fmul double %31, %34
  %36 = load double, double* %8, align 8
  %37 = load double, double* %5, align 8
  %38 = fsub double %36, %37
  %39 = fmul double %35, %38
  %40 = load double, double* %2, align 8
  %41 = load double, double* %3, align 8
  %42 = fmul double %40, %41
  %43 = load double, double* %4, align 8
  %44 = fmul double %42, %43
  %45 = load double, double* %5, align 8
  %46 = fmul double %44, %45
  %47 = load double, double* %6, align 8
  %48 = fdiv double %47, 3.600000e+02
  %49 = fmul double %48, 0x400921FB4D12D84A
  %50 = call double @cos(double %49) #3
  %51 = fmul double %46, %50
  %52 = load double, double* %6, align 8
  %53 = fdiv double %52, 3.600000e+02
  %54 = fmul double %53, 0x400921FB4D12D84A
  %55 = call double @cos(double %54) #3
  %56 = fmul double %51, %55
  %57 = fsub double %39, %56
  store double %57, double* %7, align 8
  %58 = load double, double* %7, align 8
  %59 = fcmp olt double %58, 0.000000e+00
  br i1 %59, label %60, label %62

60:                                               ; preds = %16
  %61 = call i32 (i8*, ...) @printf(i8* getelementptr inbounds ([14 x i8], [14 x i8]* @.str.1, i64 0, i64 0))
  br label %67

62:                                               ; preds = %16
  %63 = load double, double* %7, align 8
  %64 = call double @sqrt(double %63) #3
  store double %64, double* %9, align 8
  %65 = load double, double* %9, align 8
  %66 = call i32 (i8*, ...) @printf(i8* getelementptr inbounds ([6 x i8], [6 x i8]* @.str.2, i64 0, i64 0), double %65)
  br label %67

67:                                               ; preds = %62, %60
  br label %68

68:                                               ; preds = %67, %13
  br label %69

69:                                               ; preds = %68, %0
  ret i32 0
}

declare dso_local i32 @__isoc99_scanf(i8*, ...) #1

; Function Attrs: nounwind
declare dso_local double @cos(double) #2

declare dso_local i32 @printf(i8*, ...) #1

; Function Attrs: nounwind
declare dso_local double @sqrt(double) #2


!llvm.module.flags = !{!0}
!llvm.ident = !{!1}

!0 = !{i32 1, !"wchar_size", i32 4}
!1 = !{!"clang version 10.0.0-4ubuntu1 "}
